target datalayout = "e-m:e-p270:32:32-p271:32:32-p272:64:64-i64:64-i128:128-f80:128-n8:16:32:64-S128"
target triple = "x86_64-pc-linux-gnu"

%struct.UConverterAlias = type { ptr, ptr, ptr, ptr, ptr, ptr, ptr, ptr, ptr, i32, i32, i32, i32, i32, i32, i32, i32, i32 }

@_ZL10gMainTable = internal global %struct.UConverterAlias zeroinitializer, align 8

; Function Attrs: mustprogress uwtable
define ptr @ucnv_getStandard_77(i16 noundef zeroext %0, ptr noundef %1) #2 {
  %3 = alloca ptr, align 8
  %4 = alloca i16, align 2
  %5 = alloca ptr, align 8
  store i16 %0, ptr %4, align 2, !tbaa !23
  store ptr %1, ptr %5, align 8, !tbaa !17
  %6 = load ptr, ptr %5, align 8, !tbaa !17
  %7 = call noundef signext i8 @_ZL13haveAliasDataP10UErrorCode(ptr noundef %6)
  %8 = icmp ne i8 %7, 0
  br i1 %8, label %9, label %27

9:                                                ; preds = %2
  %10 = load i16, ptr %4, align 2, !tbaa !23
  %11 = zext i16 %10 to i32
  %12 = load i32, ptr getelementptr inbounds nuw (%struct.UConverterAlias, ptr @_ZL10gMainTable, i32 0, i32 10), align 4, !tbaa !47
  %13 = sub i32 %12, 1
  %14 = icmp ult i32 %11, %13
  br i1 %14, label %15, label %25

15:                                               ; preds = %9
  %16 = load ptr, ptr getelementptr inbounds nuw (%struct.UConverterAlias, ptr @_ZL10gMainTable, i32 0, i32 7), align 8, !tbaa !21
  %17 = load ptr, ptr getelementptr inbounds nuw (%struct.UConverterAlias, ptr @_ZL10gMainTable, i32 0, i32 1), align 8, !tbaa !52
  %18 = load i16, ptr %4, align 2, !tbaa !23
  %19 = zext i16 %18 to i64
  %20 = getelementptr inbounds nuw i16, ptr %17, i64 %19
  %21 = load i16, ptr %20, align 2, !tbaa !23
  %22 = zext i16 %21 to i32
  %23 = sext i32 %22 to i64
  %24 = getelementptr inbounds i16, ptr %16, i64 %23
  store ptr %24, ptr %3, align 8
  br label %28

25:                                               ; preds = %9
  %26 = load ptr, ptr %5, align 8, !tbaa !17
  store i32 8, ptr %26, align 4, !tbaa !26
  br label %27

27:                                               ; preds = %25, %2
  store ptr null, ptr %3, align 8
  br label %28

28:                                               ; preds = %27, %15
  %29 = load ptr, ptr %3, align 8
  ret ptr %29
}