; Function Attrs: mustprogress uwtable
define ptr @ucnv_getStandard_77(i16 noundef zeroext %0, ptr noundef %1) local_unnamed_addr #3 {
  %3 = tail call fastcc noundef signext i8 @_ZL13haveAliasDataP10UErrorCode(ptr noundef %1)
  %.not = icmp eq i8 %3, 0
  br i1 %.not, label %18, label %4

4:                                                ; preds = %2
  %5 = zext i16 %0 to i32
  %6 = load i32, ptr getelementptr inbounds nuw (i8, ptr @_ZL10gMainTable, i64 76), align 4, !tbaa !27
  %7 = add i32 %6, -1
  %8 = icmp ugt i32 %7, %5
  br i1 %8, label %9, label %17

9:                                                ; preds = %4
  %10 = load ptr, ptr getelementptr inbounds nuw (i8, ptr @_ZL10gMainTable, i64 56), align 8, !tbaa !20
  %11 = load ptr, ptr getelementptr inbounds nuw (i8, ptr @_ZL10gMainTable, i64 8), align 8, !tbaa !35
  %12 = zext i16 %0 to i64
  %13 = getelementptr inbounds nuw i16, ptr %11, i64 %12
  %14 = load i16, ptr %13, align 2, !tbaa !22
  %15 = zext i16 %14 to i64
  %16 = getelementptr inbounds nuw i16, ptr %10, i64 %15
  br label %18

17:                                               ; preds = %4
  store i32 8, ptr %1, align 4, !tbaa !13
  br label %18

18:                                               ; preds = %2, %17, %9
  %.0 = phi ptr [ %16, %9 ], [ null, %17 ], [ null, %2 ]
  ret ptr %.0
}